; Function Attrs: cold nounwind optsize uwtable
define internal void @uninit(ptr noundef readonly captures(none) %0) #1 {
  %2 = getelementptr inbounds nuw i8, ptr %0, i64 72
  %3 = load ptr, ptr %2, align 8, !tbaa !4
  %4 = getelementptr inbounds nuw i8, ptr %3, i64 8
  tail call void @ff_framesync_uninit(ptr noundef nonnull %4) #9
  %5 = getelementptr inbounds nuw i8, ptr %3, i64 152
  tail call void @av_freep(ptr noundef nonnull %5) #9
  %6 = getelementptr inbounds nuw i8, ptr %3, i64 160
  tail call void @av_freep(ptr noundef nonnull %6) #9
  ret void
}